target datalayout = "e-m:e-p270:32:32-p271:32:32-p272:64:64-i64:64-i128:128-f80:128-n8:16:32:64-S128"
target triple = "x86_64-pc-linux-gnu"

%"class.gmx::Constraints" = type { %"class.std::unique_ptr" }
%"class.std::unique_ptr" = type { %"struct.std::__uniq_ptr_data" }
%"struct.std::__uniq_ptr_data" = type { %"class.std::__uniq_ptr_impl" }
%"class.std::__uniq_ptr_impl" = type { %"class.std::tuple" }
%"class.std::tuple" = type { %"struct.std::_Tuple_impl" }
%"struct.std::_Tuple_impl" = type { %"struct.std::_Head_base.1" }
%"struct.std::_Head_base.1" = type { ptr }
%"class.gmx::ArrayRef" = type { %"struct.gmx::ArrayRefIter", %"struct.gmx::ArrayRefIter" }
%"struct.gmx::ArrayRefIter" = type { ptr }
%"class.gmx::ArrayRef.23" = type { %"struct.gmx::ArrayRefIter.24", %"struct.gmx::ArrayRefIter.24" }
%"struct.gmx::ArrayRefIter.24" = type { ptr }

; Function Attrs: mustprogress nounwind uwtable
define linkonce_odr noundef nonnull align 8 dereferenceable(8) ptr @_ZNSt10_Head_baseILm0EPN3gmx11Constraints4ImplELb0EE7_M_headERKS4_(ptr noundef nonnull align 8 dereferenceable(8) %0) #0 comdat align 2 {
  %2 = alloca ptr, align 8
  store ptr %0, ptr %2, align 8, !tbaa !24
  %3 = load ptr, ptr %2, align 8, !tbaa !24
  %4 = getelementptr inbounds nuw %"struct.std::_Head_base.1", ptr %3, i32 0, i32 0
  ret ptr %4
}

; Function Attrs: mustprogress nounwind uwtable
define linkonce_odr noundef nonnull align 8 dereferenceable(8) ptr @_ZNSt11_Tuple_implILm0EJPN3gmx11Constraints4ImplESt14default_deleteIS2_EEE7_M_headERKS6_(ptr noundef nonnull align 8 dereferenceable(8) %0) #0 comdat align 2 {
  %2 = alloca ptr, align 8
  store ptr %0, ptr %2, align 8, !tbaa !22
  %3 = load ptr, ptr %2, align 8, !tbaa !22
  %4 = call noundef nonnull align 8 dereferenceable(8) ptr @_ZNSt10_Head_baseILm0EPN3gmx11Constraints4ImplELb0EE7_M_headERKS4_(ptr noundef nonnull align 8 dereferenceable(8) %3) #15
  ret ptr %4
}

; Function Attrs: mustprogress nounwind uwtable
define linkonce_odr noundef nonnull align 8 dereferenceable(8) ptr @_ZSt12__get_helperILm0EPN3gmx11Constraints4ImplEJSt14default_deleteIS2_EEERKT0_RKSt11_Tuple_implIXT_EJS6_DpT1_EE(ptr noundef nonnull align 8 dereferenceable(8) %0) #0 comdat {
  %2 = alloca ptr, align 8
  store ptr %0, ptr %2, align 8, !tbaa !22
  %3 = load ptr, ptr %2, align 8, !tbaa !22
  %4 = call noundef nonnull align 8 dereferenceable(8) ptr @_ZNSt11_Tuple_implILm0EJPN3gmx11Constraints4ImplESt14default_deleteIS2_EEE7_M_headERKS6_(ptr noundef nonnull align 8 dereferenceable(8) %3) #15
  ret ptr %4
}

; Function Attrs: mustprogress nounwind uwtable
define linkonce_odr noundef nonnull align 8 dereferenceable(8) ptr @_ZSt3getILm0EJPN3gmx11Constraints4ImplESt14default_deleteIS2_EEERKNSt13tuple_elementIXT_ESt5tupleIJDpT0_EEE4typeERKSA_(ptr noundef nonnull align 8 dereferenceable(8) %0) #0 comdat {
  %2 = alloca ptr, align 8
  store ptr %0, ptr %2, align 8, !tbaa !20
  %3 = load ptr, ptr %2, align 8, !tbaa !20
  %4 = call noundef nonnull align 8 dereferenceable(8) ptr @_ZSt12__get_helperILm0EPN3gmx11Constraints4ImplEJSt14default_deleteIS2_EEERKT0_RKSt11_Tuple_implIXT_EJS6_DpT1_EE(ptr noundef nonnull align 8 dereferenceable(8) %3) #15
  ret ptr %4
}

; Function Attrs: mustprogress nounwind uwtable
define linkonce_odr noundef i64 @_ZNK3gmx12ArrayRefIterIKtEmiES2_(ptr noundef nonnull align 8 dereferenceable(8) %0, ptr %1) #0 comdat align 2 {
  %3 = alloca %"struct.gmx::ArrayRefIter.24", align 8
  %4 = alloca ptr, align 8
  %5 = getelementptr inbounds nuw %"struct.gmx::ArrayRefIter.24", ptr %3, i32 0, i32 0
  store ptr %1, ptr %5, align 8
  store ptr %0, ptr %4, align 8, !tbaa !550
  %6 = load ptr, ptr %4, align 8
  %7 = getelementptr inbounds nuw %"struct.gmx::ArrayRefIter.24", ptr %6, i32 0, i32 0
  %8 = load ptr, ptr %7, align 8, !tbaa !552
  %9 = getelementptr inbounds nuw %"struct.gmx::ArrayRefIter.24", ptr %3, i32 0, i32 0
  %10 = load ptr, ptr %9, align 8, !tbaa !552
  %11 = ptrtoint ptr %8 to i64
  %12 = ptrtoint ptr %10 to i64
  %13 = sub i64 %11, %12
  %14 = sdiv exact i64 %13, 2
  ret i64 %14
}

; Function Attrs: mustprogress nounwind uwtable
define linkonce_odr noundef ptr @_ZNK3gmx12ArrayRefIterIKtE4dataEv(ptr noundef nonnull align 8 dereferenceable(8) %0) #0 comdat align 2 {
  %2 = alloca ptr, align 8
  store ptr %0, ptr %2, align 8, !tbaa !550
  %3 = load ptr, ptr %2, align 8
  %4 = getelementptr inbounds nuw %"struct.gmx::ArrayRefIter.24", ptr %3, i32 0, i32 0
  %5 = load ptr, ptr %4, align 8, !tbaa !552
  ret ptr %5
}

; Function Attrs: mustprogress nounwind uwtable
define linkonce_odr noundef i64 @_ZNK3gmx12ArrayRefIterIKfEmiES2_(ptr noundef nonnull align 8 dereferenceable(8) %0, ptr %1) #0 comdat align 2 {
  %3 = alloca %"struct.gmx::ArrayRefIter", align 8
  %4 = alloca ptr, align 8
  %5 = getelementptr inbounds nuw %"struct.gmx::ArrayRefIter", ptr %3, i32 0, i32 0
  store ptr %1, ptr %5, align 8
  store ptr %0, ptr %4, align 8, !tbaa !424
  %6 = load ptr, ptr %4, align 8
  %7 = getelementptr inbounds nuw %"struct.gmx::ArrayRefIter", ptr %6, i32 0, i32 0
  %8 = load ptr, ptr %7, align 8, !tbaa !426
  %9 = getelementptr inbounds nuw %"struct.gmx::ArrayRefIter", ptr %3, i32 0, i32 0
  %10 = load ptr, ptr %9, align 8, !tbaa !426
  %11 = ptrtoint ptr %8 to i64
  %12 = ptrtoint ptr %10 to i64
  %13 = sub i64 %11, %12
  %14 = sdiv exact i64 %13, 4
  ret i64 %14
}

; Function Attrs: mustprogress nounwind uwtable
define linkonce_odr noundef ptr @_ZNK3gmx12ArrayRefIterIKfE4dataEv(ptr noundef nonnull align 8 dereferenceable(8) %0) #0 comdat align 2 {
  %2 = alloca ptr, align 8
  store ptr %0, ptr %2, align 8, !tbaa !424
  %3 = load ptr, ptr %2, align 8
  %4 = getelementptr inbounds nuw %"struct.gmx::ArrayRefIter", ptr %3, i32 0, i32 0
  %5 = load ptr, ptr %4, align 8, !tbaa !426
  ret ptr %5
}

; Function Attrs: mustprogress nounwind uwtable
define linkonce_odr noundef ptr @_ZNKSt15__uniq_ptr_implIN3gmx11Constraints4ImplESt14default_deleteIS2_EE6_M_ptrEv(ptr noundef nonnull align 8 dereferenceable(8) %0) #0 comdat align 2 {
  %2 = alloca ptr, align 8
  store ptr %0, ptr %2, align 8, !tbaa !16
  %3 = load ptr, ptr %2, align 8
  %4 = getelementptr inbounds nuw %"class.std::__uniq_ptr_impl", ptr %3, i32 0, i32 0
  %5 = call noundef nonnull align 8 dereferenceable(8) ptr @_ZSt3getILm0EJPN3gmx11Constraints4ImplESt14default_deleteIS2_EEERKNSt13tuple_elementIXT_ESt5tupleIJDpT0_EEE4typeERKSA_(ptr noundef nonnull align 8 dereferenceable(8) %4) #15
  %6 = load ptr, ptr %5, align 8, !tbaa !14
  ret ptr %6
}

; Function Attrs: mustprogress nounwind uwtable
define linkonce_odr noundef i64 @_ZNK3gmx8ArrayRefIKtE4sizeEv(ptr noundef nonnull align 8 dereferenceable(16) %0) #0 comdat align 2 {
  %2 = alloca ptr, align 8
  %3 = alloca %"struct.gmx::ArrayRefIter.24", align 8
  store ptr %0, ptr %2, align 8, !tbaa !380
  %4 = load ptr, ptr %2, align 8
  %5 = getelementptr inbounds nuw %"class.gmx::ArrayRef.23", ptr %4, i32 0, i32 1
  %6 = getelementptr inbounds nuw %"class.gmx::ArrayRef.23", ptr %4, i32 0, i32 0
  call void @llvm.memcpy.p0.p0.i64(ptr align 8 %3, ptr align 8 %6, i64 8, i1 false)
  %7 = getelementptr inbounds nuw %"struct.gmx::ArrayRefIter.24", ptr %3, i32 0, i32 0
  %8 = load ptr, ptr %7, align 8
  %9 = call noundef i64 @_ZNK3gmx12ArrayRefIterIKtEmiES2_(ptr noundef nonnull align 8 dereferenceable(8) %5, ptr %8) #15
  ret i64 %9
}

; Function Attrs: mustprogress nounwind uwtable
define linkonce_odr void @_ZN3gmx12ArrayRefIterIKtEC2EPS1_(ptr noundef nonnull align 8 dereferenceable(8) %0, ptr noundef %1) unnamed_addr #0 comdat align 2 {
  %3 = alloca ptr, align 8
  %4 = alloca ptr, align 8
  store ptr %0, ptr %3, align 8, !tbaa !550
  store ptr %1, ptr %4, align 8, !tbaa !709
  %5 = load ptr, ptr %3, align 8
  %6 = getelementptr inbounds nuw %"struct.gmx::ArrayRefIter.24", ptr %5, i32 0, i32 0
  %7 = load ptr, ptr %4, align 8, !tbaa !709
  store ptr %7, ptr %6, align 8, !tbaa !552
  ret void
}

; Function Attrs: mustprogress nounwind uwtable
define linkonce_odr noundef ptr @_ZNK3gmx8ArrayRefIKtE4dataEv(ptr noundef nonnull align 8 dereferenceable(16) %0) #0 comdat align 2 {
  %2 = alloca ptr, align 8
  store ptr %0, ptr %2, align 8, !tbaa !380
  %3 = load ptr, ptr %2, align 8
  %4 = getelementptr inbounds nuw %"class.gmx::ArrayRef.23", ptr %3, i32 0, i32 0
  %5 = call noundef ptr @_ZNK3gmx12ArrayRefIterIKtE4dataEv(ptr noundef nonnull align 8 dereferenceable(8) %4) #15
  ret ptr %5
}

; Function Attrs: mustprogress nounwind uwtable
define linkonce_odr noundef i64 @_ZNK3gmx8ArrayRefIKfE4sizeEv(ptr noundef nonnull align 8 dereferenceable(16) %0) #0 comdat align 2 {
  %2 = alloca ptr, align 8
  %3 = alloca %"struct.gmx::ArrayRefIter", align 8
  store ptr %0, ptr %2, align 8, !tbaa !354
  %4 = load ptr, ptr %2, align 8
  %5 = getelementptr inbounds nuw %"class.gmx::ArrayRef", ptr %4, i32 0, i32 1
  %6 = getelementptr inbounds nuw %"class.gmx::ArrayRef", ptr %4, i32 0, i32 0
  call void @llvm.memcpy.p0.p0.i64(ptr align 8 %3, ptr align 8 %6, i64 8, i1 false)
  %7 = getelementptr inbounds nuw %"struct.gmx::ArrayRefIter", ptr %3, i32 0, i32 0
  %8 = load ptr, ptr %7, align 8
  %9 = call noundef i64 @_ZNK3gmx12ArrayRefIterIKfEmiES2_(ptr noundef nonnull align 8 dereferenceable(8) %5, ptr %8) #15
  ret i64 %9
}

; Function Attrs: mustprogress nounwind uwtable
define linkonce_odr void @_ZN3gmx12ArrayRefIterIKfEC2EPS1_(ptr noundef nonnull align 8 dereferenceable(8) %0, ptr noundef %1) unnamed_addr #0 comdat align 2 {
  %3 = alloca ptr, align 8
  %4 = alloca ptr, align 8
  store ptr %0, ptr %3, align 8, !tbaa !424
  store ptr %1, ptr %4, align 8, !tbaa !155
  %5 = load ptr, ptr %3, align 8
  %6 = getelementptr inbounds nuw %"struct.gmx::ArrayRefIter", ptr %5, i32 0, i32 0
  %7 = load ptr, ptr %4, align 8, !tbaa !155
  store ptr %7, ptr %6, align 8, !tbaa !426
  ret void
}

; Function Attrs: mustprogress nounwind uwtable
define linkonce_odr noundef ptr @_ZNK3gmx8ArrayRefIKfE4dataEv(ptr noundef nonnull align 8 dereferenceable(16) %0) #0 comdat align 2 {
  %2 = alloca ptr, align 8
  store ptr %0, ptr %2, align 8, !tbaa !354
  %3 = load ptr, ptr %2, align 8
  %4 = getelementptr inbounds nuw %"class.gmx::ArrayRef", ptr %3, i32 0, i32 0
  %5 = call noundef ptr @_ZNK3gmx12ArrayRefIterIKfE4dataEv(ptr noundef nonnull align 8 dereferenceable(8) %4) #15
  ret ptr %5
}

; Function Attrs: mustprogress nounwind uwtable
define linkonce_odr noundef ptr @_ZNKSt10unique_ptrIN3gmx11Constraints4ImplESt14default_deleteIS2_EE3getEv(ptr noundef nonnull align 8 dereferenceable(8) %0) #0 comdat align 2 {
  %2 = alloca ptr, align 8
  store ptr %0, ptr %2, align 8, !tbaa !9
  %3 = load ptr, ptr %2, align 8
  %4 = getelementptr inbounds nuw %"class.std::unique_ptr", ptr %3, i32 0, i32 0
  %5 = call noundef ptr @_ZNKSt15__uniq_ptr_implIN3gmx11Constraints4ImplESt14default_deleteIS2_EE6_M_ptrEv(ptr noundef nonnull align 8 dereferenceable(8) %4) #15
  ret ptr %5
}

; Function Attrs: mustprogress uwtable
define linkonce_odr void @_ZN3gmx8ArrayRefIKtEC2IRS2_vEEOT_(ptr noundef nonnull align 8 dereferenceable(16) %0, ptr noundef nonnull align 8 dereferenceable(16) %1) unnamed_addr #6 comdat align 2 {
  %3 = alloca ptr, align 8
  %4 = alloca ptr, align 8
  store ptr %0, ptr %3, align 8, !tbaa !380
  store ptr %1, ptr %4, align 8, !tbaa !380
  %5 = load ptr, ptr %3, align 8
  %6 = getelementptr inbounds nuw %"class.gmx::ArrayRef.23", ptr %5, i32 0, i32 0
  %7 = load ptr, ptr %4, align 8, !tbaa !380
  %8 = call noundef ptr @_ZNK3gmx8ArrayRefIKtE4dataEv(ptr noundef nonnull align 8 dereferenceable(16) %7)
  call void @_ZN3gmx12ArrayRefIterIKtEC2EPS1_(ptr noundef nonnull align 8 dereferenceable(8) %6, ptr noundef %8) #15
  %9 = getelementptr inbounds nuw %"class.gmx::ArrayRef.23", ptr %5, i32 0, i32 1
  %10 = load ptr, ptr %4, align 8, !tbaa !380
  %11 = call noundef ptr @_ZNK3gmx8ArrayRefIKtE4dataEv(ptr noundef nonnull align 8 dereferenceable(16) %10)
  %12 = load ptr, ptr %4, align 8, !tbaa !380
  %13 = call noundef i64 @_ZNK3gmx8ArrayRefIKtE4sizeEv(ptr noundef nonnull align 8 dereferenceable(16) %12)
  %14 = getelementptr inbounds nuw i16, ptr %11, i64 %13
  call void @_ZN3gmx12ArrayRefIterIKtEC2EPS1_(ptr noundef nonnull align 8 dereferenceable(8) %9, ptr noundef %14) #15
  ret void
}

; Function Attrs: mustprogress uwtable
define linkonce_odr void @_ZN3gmx8ArrayRefIKfEC2IRS2_vEEOT_(ptr noundef nonnull align 8 dereferenceable(16) %0, ptr noundef nonnull align 8 dereferenceable(16) %1) unnamed_addr #6 comdat align 2 {
  %3 = alloca ptr, align 8
  %4 = alloca ptr, align 8
  store ptr %0, ptr %3, align 8, !tbaa !354
  store ptr %1, ptr %4, align 8, !tbaa !354
  %5 = load ptr, ptr %3, align 8
  %6 = getelementptr inbounds nuw %"class.gmx::ArrayRef", ptr %5, i32 0, i32 0
  %7 = load ptr, ptr %4, align 8, !tbaa !354
  %8 = call noundef ptr @_ZNK3gmx8ArrayRefIKfE4dataEv(ptr noundef nonnull align 8 dereferenceable(16) %7)
  call void @_ZN3gmx12ArrayRefIterIKfEC2EPS1_(ptr noundef nonnull align 8 dereferenceable(8) %6, ptr noundef %8) #15
  %9 = getelementptr inbounds nuw %"class.gmx::ArrayRef", ptr %5, i32 0, i32 1
  %10 = load ptr, ptr %4, align 8, !tbaa !354
  %11 = call noundef ptr @_ZNK3gmx8ArrayRefIKfE4dataEv(ptr noundef nonnull align 8 dereferenceable(16) %10)
  %12 = load ptr, ptr %4, align 8, !tbaa !354
  %13 = call noundef i64 @_ZNK3gmx8ArrayRefIKfE4sizeEv(ptr noundef nonnull align 8 dereferenceable(16) %12)
  %14 = getelementptr inbounds nuw float, ptr %11, i64 %13
  call void @_ZN3gmx12ArrayRefIterIKfEC2EPS1_(ptr noundef nonnull align 8 dereferenceable(8) %9, ptr noundef %14) #15
  ret void
}

; Function Attrs: mustprogress nounwind uwtable
define linkonce_odr noundef ptr @_ZNKSt10unique_ptrIN3gmx11Constraints4ImplESt14default_deleteIS2_EEptEv(ptr noundef nonnull align 8 dereferenceable(8) %0) #0 comdat align 2 {
  %2 = alloca ptr, align 8
  store ptr %0, ptr %2, align 8, !tbaa !9
  %3 = load ptr, ptr %2, align 8
  %4 = call noundef ptr @_ZNKSt10unique_ptrIN3gmx11Constraints4ImplESt14default_deleteIS2_EE3getEv(ptr noundef nonnull align 8 dereferenceable(8) %3) #15
  ret ptr %4
}

; Function Attrs: mustprogress uwtable
define void @_ZN3gmx11Constraints14setConstraintsEP14gmx_localtop_tiiNS_8ArrayRefIKfEES5_bfNS3_IKtEE(ptr noundef nonnull align 8 dereferenceable(8) %0, ptr noundef %1, i32 noundef %2, i32 noundef %3, ptr %4, ptr %5, ptr noundef byval(%"class.gmx::ArrayRef") align 8 %6, i1 noundef zeroext %7, float noundef %8, ptr noundef byval(%"class.gmx::ArrayRef.23") align 8 %9) #6 align 2 {
  %11 = alloca %"class.gmx::ArrayRef", align 8
  %12 = alloca ptr, align 8
  %13 = alloca ptr, align 8
  %14 = alloca i32, align 4
  %15 = alloca i32, align 4
  %16 = alloca i8, align 1
  %17 = alloca float, align 4
  %18 = alloca %"class.gmx::ArrayRef", align 8
  %19 = alloca %"class.gmx::ArrayRef", align 8
  %20 = alloca %"class.gmx::ArrayRef.23", align 8
  %21 = getelementptr inbounds nuw { ptr, ptr }, ptr %11, i32 0, i32 0
  store ptr %4, ptr %21, align 8
  %22 = getelementptr inbounds nuw { ptr, ptr }, ptr %11, i32 0, i32 1
  store ptr %5, ptr %22, align 8
  store ptr %0, ptr %12, align 8, !tbaa !4
  store ptr %1, ptr %13, align 8, !tbaa !704
  store i32 %2, ptr %14, align 4, !tbaa !82
  store i32 %3, ptr %15, align 4, !tbaa !82
  %23 = zext i1 %7 to i8
  store i8 %23, ptr %16, align 1, !tbaa !151
  store float %8, ptr %17, align 4, !tbaa !152
  %24 = load ptr, ptr %12, align 8
  %25 = getelementptr inbounds nuw %"class.gmx::Constraints", ptr %24, i32 0, i32 0
  %26 = call noundef ptr @_ZNKSt10unique_ptrIN3gmx11Constraints4ImplESt14default_deleteIS2_EEptEv(ptr noundef nonnull align 8 dereferenceable(8) %25) #15
  %27 = load ptr, ptr %13, align 8, !tbaa !704
  %28 = load i32, ptr %14, align 4, !tbaa !82
  %29 = load i32, ptr %15, align 4, !tbaa !82
  call void @_ZN3gmx8ArrayRefIKfEC2IRS2_vEEOT_(ptr noundef nonnull align 8 dereferenceable(16) %18, ptr noundef nonnull align 8 dereferenceable(16) %11)
  call void @_ZN3gmx8ArrayRefIKfEC2IRS2_vEEOT_(ptr noundef nonnull align 8 dereferenceable(16) %19, ptr noundef nonnull align 8 dereferenceable(16) %6)
  %30 = load i8, ptr %16, align 1, !tbaa !151, !range !158, !noundef !159
  %31 = trunc i8 %30 to i1
  %32 = load float, ptr %17, align 4, !tbaa !152
  call void @_ZN3gmx8ArrayRefIKtEC2IRS2_vEEOT_(ptr noundef nonnull align 8 dereferenceable(16) %20, ptr noundef nonnull align 8 dereferenceable(16) %9)
  %33 = getelementptr inbounds nuw { ptr, ptr }, ptr %18, i32 0, i32 0
  %34 = load ptr, ptr %33, align 8
  %35 = getelementptr inbounds nuw { ptr, ptr }, ptr %18, i32 0, i32 1
  %36 = load ptr, ptr %35, align 8
  call void @_ZN3gmx11Constraints4Impl14setConstraintsEP14gmx_localtop_tiiNS_8ArrayRefIKfEES6_bfNS4_IKtEE(ptr noundef nonnull align 8 dereferenceable(264) %26, ptr noundef %27, i32 noundef %28, i32 noundef %29, ptr %34, ptr %36, ptr noundef byval(%"class.gmx::ArrayRef") align 8 %19, i1 noundef zeroext %31, float noundef %32, ptr noundef byval(%"class.gmx::ArrayRef.23") align 8 %20)
  ret void
}