; Function Attrs: mustprogress uwtable
define void @_ZN3gmx11Constraints14setConstraintsEP14gmx_localtop_tiiNS_8ArrayRefIKfEES5_bfNS3_IKtEE(ptr noundef nonnull readonly align 8 captures(none) dereferenceable(8) %0, ptr noundef %1, i32 noundef %2, i32 noundef %3, ptr %4, ptr %5, ptr noundef readonly byval(%"class.gmx::ArrayRef") align 8 captures(none) %6, i1 noundef zeroext %7, float noundef %8, ptr noundef readonly byval(%"class.gmx::ArrayRef.23") align 8 captures(none) %9) local_unnamed_addr #8 align 2 {
  %11 = alloca %"class.gmx::ArrayRef", align 8
  %12 = alloca %"class.gmx::ArrayRef.23", align 8
  %13 = load ptr, ptr %0, align 8, !tbaa !4
  %14 = ptrtoint ptr %5 to i64
  %15 = ptrtoint ptr %4 to i64
  %16 = sub i64 %14, %15
  %17 = getelementptr inbounds nuw i8, ptr %4, i64 %16
  %18 = load ptr, ptr %6, align 8, !tbaa !251
  store ptr %18, ptr %11, align 8, !tbaa !251
  %19 = getelementptr inbounds nuw i8, ptr %11, i64 8
  %20 = getelementptr inbounds nuw i8, ptr %6, i64 8
  %21 = load ptr, ptr %20, align 8, !tbaa !251
  %22 = ptrtoint ptr %21 to i64
  %23 = ptrtoint ptr %18 to i64
  %24 = sub i64 %22, %23
  %25 = getelementptr inbounds nuw i8, ptr %18, i64 %24
  store ptr %25, ptr %19, align 8, !tbaa !251
  %26 = load ptr, ptr %9, align 8, !tbaa !419
  store ptr %26, ptr %12, align 8, !tbaa !419
  %27 = getelementptr inbounds nuw i8, ptr %12, i64 8
  %28 = getelementptr inbounds nuw i8, ptr %9, i64 8
  %29 = load ptr, ptr %28, align 8, !tbaa !419
  %30 = ptrtoint ptr %29 to i64
  %31 = ptrtoint ptr %26 to i64
  %32 = sub i64 %30, %31
  %33 = getelementptr inbounds nuw i8, ptr %26, i64 %32
  store ptr %33, ptr %27, align 8, !tbaa !419
  tail call void @_ZN3gmx11Constraints4Impl14setConstraintsEP14gmx_localtop_tiiNS_8ArrayRefIKfEES6_bfNS4_IKtEE(ptr noundef nonnull align 8 dereferenceable(264) %13, ptr noundef %1, i32 noundef %2, i32 noundef %3, ptr %4, ptr %17, ptr noundef nonnull byval(%"class.gmx::ArrayRef") align 8 %11, i1 noundef zeroext %7, float noundef %8, ptr noundef nonnull byval(%"class.gmx::ArrayRef.23") align 8 %12)
  ret void
}